target datalayout = "e-m:e-p270:32:32-p271:32:32-p272:64:64-i64:64-i128:128-f80:128-n8:16:32:64-S128"
target triple = "x86_64-pc-linux-gnu"

%struct.prov_gcm_ctx_st = type { i32, i64, i64, i64, i64, i64, i64, i64, i64, i64, i32, i8, [128 x i8], [16 x i8], ptr, ptr, %struct.gcm128_context, ptr }
%struct.gcm128_context = type { %union.anon, %union.anon, %union.anon, %union.anon, %union.anon, %union.anon, [16 x %struct.u128], %struct.gcm_funcs_st, i32, i32, ptr, ptr, [48 x i8] }
%union.anon = type { [2 x i64] }
%struct.u128 = type { i64, i64 }
%struct.gcm_funcs_st = type { ptr, ptr, ptr }
%struct.prov_aes_gcm_ctx_st = type { %struct.prov_gcm_ctx_st, %union.anon.0, %union.anon.1 }
%union.anon.0 = type { double, [240 x i8] }
%union.anon.1 = type { i32 }

@OPENSSL_ia32cap_P = external global [0 x i32], align 4

; Function Attrs: nounwind uwtable
define internal i32 @aes_gcm_initkey(ptr noundef %0, ptr noundef %1, i64 noundef %2) #0 {
  %4 = alloca ptr, align 8
  %5 = alloca ptr, align 8
  %6 = alloca i64, align 8
  %7 = alloca ptr, align 8
  %8 = alloca ptr, align 8
  store ptr %0, ptr %4, align 8, !tbaa !9
  store ptr %1, ptr %5, align 8, !tbaa !12
  store i64 %2, ptr %6, align 8, !tbaa !3
  call void @llvm.lifetime.start.p0(i64 8, ptr %7) #5
  %9 = load ptr, ptr %4, align 8, !tbaa !9
  store ptr %9, ptr %7, align 8, !tbaa !16
  call void @llvm.lifetime.start.p0(i64 8, ptr %8) #5
  %10 = load ptr, ptr %7, align 8, !tbaa !16
  %11 = getelementptr inbounds nuw %struct.prov_aes_gcm_ctx_st, ptr %10, i32 0, i32 1
  store ptr %11, ptr %8, align 8, !tbaa !18
  %12 = load i32, ptr getelementptr inbounds ([0 x i32], ptr @OPENSSL_ia32cap_P, i64 0, i64 1), align 4, !tbaa !7
  %13 = and i32 %12, 512
  %14 = icmp ne i32 %13, 0
  br i1 %14, label %15, label %32

15:                                               ; preds = %3
  %16 = load ptr, ptr %5, align 8, !tbaa !12
  %17 = load i64, ptr %6, align 8, !tbaa !3
  %18 = mul i64 %17, 8
  %19 = trunc i64 %18 to i32
  %20 = load ptr, ptr %8, align 8, !tbaa !18
  %21 = call i32 @AES_set_encrypt_key(ptr noundef %16, i32 noundef %19, ptr noundef %20)
  %22 = load ptr, ptr %4, align 8, !tbaa !9
  %23 = getelementptr inbounds nuw %struct.prov_gcm_ctx_st, ptr %22, i32 0, i32 16
  %24 = load ptr, ptr %8, align 8, !tbaa !18
  call void @CRYPTO_gcm128_init(ptr noundef %23, ptr noundef %24, ptr noundef @AES_encrypt)
  %25 = load ptr, ptr %4, align 8, !tbaa !9
  %26 = getelementptr inbounds nuw %struct.prov_gcm_ctx_st, ptr %25, i32 0, i32 17
  store ptr @ossl_bsaes_ctr32_encrypt_blocks, ptr %26, align 8, !tbaa !37
  %27 = load ptr, ptr %4, align 8, !tbaa !9
  %28 = getelementptr inbounds nuw %struct.prov_gcm_ctx_st, ptr %27, i32 0, i32 11
  %29 = load i8, ptr %28, align 4
  %30 = and i8 %29, -5
  %31 = or i8 %30, 4
  store i8 %31, ptr %28, align 4
  br label %71

32:                                               ; preds = %3
  %33 = load i32, ptr getelementptr inbounds ([0 x i32], ptr @OPENSSL_ia32cap_P, i64 0, i64 1), align 4, !tbaa !7
  %34 = and i32 %33, 512
  %35 = icmp ne i32 %34, 0
  br i1 %35, label %36, label %53

36:                                               ; preds = %32
  %37 = load ptr, ptr %5, align 8, !tbaa !12
  %38 = load i64, ptr %6, align 8, !tbaa !3
  %39 = mul i64 %38, 8
  %40 = trunc i64 %39 to i32
  %41 = load ptr, ptr %8, align 8, !tbaa !18
  %42 = call i32 @vpaes_set_encrypt_key(ptr noundef %37, i32 noundef %40, ptr noundef %41)
  %43 = load ptr, ptr %4, align 8, !tbaa !9
  %44 = getelementptr inbounds nuw %struct.prov_gcm_ctx_st, ptr %43, i32 0, i32 16
  %45 = load ptr, ptr %8, align 8, !tbaa !18
  call void @CRYPTO_gcm128_init(ptr noundef %44, ptr noundef %45, ptr noundef @vpaes_encrypt)
  %46 = load ptr, ptr %4, align 8, !tbaa !9
  %47 = getelementptr inbounds nuw %struct.prov_gcm_ctx_st, ptr %46, i32 0, i32 17
  store ptr null, ptr %47, align 8, !tbaa !37
  %48 = load ptr, ptr %4, align 8, !tbaa !9
  %49 = getelementptr inbounds nuw %struct.prov_gcm_ctx_st, ptr %48, i32 0, i32 11
  %50 = load i8, ptr %49, align 4
  %51 = and i8 %50, -5
  %52 = or i8 %51, 4
  store i8 %52, ptr %49, align 4
  br label %70

53:                                               ; preds = %32
  %54 = load ptr, ptr %5, align 8, !tbaa !12
  %55 = load i64, ptr %6, align 8, !tbaa !3
  %56 = mul i64 %55, 8
  %57 = trunc i64 %56 to i32
  %58 = load ptr, ptr %8, align 8, !tbaa !18
  %59 = call i32 @AES_set_encrypt_key(ptr noundef %54, i32 noundef %57, ptr noundef %58)
  %60 = load ptr, ptr %4, align 8, !tbaa !9
  %61 = getelementptr inbounds nuw %struct.prov_gcm_ctx_st, ptr %60, i32 0, i32 16
  %62 = load ptr, ptr %8, align 8, !tbaa !18
  call void @CRYPTO_gcm128_init(ptr noundef %61, ptr noundef %62, ptr noundef @AES_encrypt)
  %63 = load ptr, ptr %4, align 8, !tbaa !9
  %64 = getelementptr inbounds nuw %struct.prov_gcm_ctx_st, ptr %63, i32 0, i32 17
  store ptr null, ptr %64, align 8, !tbaa !37
  %65 = load ptr, ptr %4, align 8, !tbaa !9
  %66 = getelementptr inbounds nuw %struct.prov_gcm_ctx_st, ptr %65, i32 0, i32 11
  %67 = load i8, ptr %66, align 4
  %68 = and i8 %67, -5
  %69 = or i8 %68, 4
  store i8 %69, ptr %66, align 4
  br label %70

70:                                               ; preds = %53, %36
  br label %71

71:                                               ; preds = %70, %15
  call void @llvm.lifetime.end.p0(i64 8, ptr %8) #5
  call void @llvm.lifetime.end.p0(i64 8, ptr %7) #5
  ret i32 1
}