; Function Attrs: nounwind uwtable
define internal noundef i32 @aes_gcm_initkey(ptr noundef %0, ptr noundef %1, i64 noundef %2) #0 {
  %4 = getelementptr inbounds nuw i8, ptr %0, i64 704
  %5 = load i32, ptr getelementptr inbounds nuw (i8, ptr @OPENSSL_ia32cap_P, i64 4), align 4, !tbaa !3
  %6 = and i32 %5, 512
  %.not = icmp eq i32 %6, 0
  %.tr = trunc i64 %2 to i32
  %7 = shl i32 %.tr, 3
  %8 = tail call i32 @AES_set_encrypt_key(ptr noundef %1, i32 noundef %7, ptr noundef nonnull %4) #4
  %9 = getelementptr inbounds nuw i8, ptr %0, i64 248
  tail call void @CRYPTO_gcm128_init(ptr noundef nonnull %9, ptr noundef nonnull %4, ptr noundef nonnull @AES_encrypt) #4
  %10 = getelementptr inbounds nuw i8, ptr %0, i64 696
  %11 = getelementptr inbounds nuw i8, ptr %0, i64 84
  %.ossl_bsaes_ctr32_encrypt_blocks = select i1 %.not, ptr null, ptr @ossl_bsaes_ctr32_encrypt_blocks
  store ptr %.ossl_bsaes_ctr32_encrypt_blocks, ptr %10, align 8, !tbaa !22
  %12 = load i8, ptr %11, align 4
  %13 = or i8 %12, 4
  store i8 %13, ptr %11, align 4
  ret i32 1
}